; Function Attrs: mustprogress nofree norecurse nosync nounwind ssp willreturn memory(argmem: write) uwtable
define void @_ZNK6open3d13visualization11ColorMapJet8GetColorEd(ptr dead_on_unwind noalias writable writeonly sret(%"class.Eigen::Matrix") align 8 captures(none) initializes((0, 24)) %0, ptr nonnull readnone align 8 captures(none) %1, double noundef %2) unnamed_addr #1 align 2 {
  %4 = tail call double @llvm.fmuladd.f64(double %2, double 2.000000e+00, double -1.500000e+00)
  %5 = fcmp ugt double %4, -7.500000e-01
  br i1 %5, label %6, label %_ZNK6open3d13visualization11ColorMapJet7JetBaseEd.exit

6:                                                ; preds = %3
  %7 = fcmp ugt double %4, -2.500000e-01
  br i1 %7, label %16, label %8

8:                                                ; preds = %6
  %9 = fcmp olt double %4, -7.500000e-01
  br i1 %9, label %_ZNK6open3d13visualization11ColorMapJet7JetBaseEd.exit, label %10

10:                                               ; preds = %8
  %11 = fcmp ogt double %4, -2.500000e-01
  br i1 %11, label %_ZNK6open3d13visualization11ColorMapJet7JetBaseEd.exit, label %12

12:                                               ; preds = %10
  %13 = fadd double %4, 7.500000e-01
  %14 = fmul double %13, 2.000000e+00
  %15 = fadd double %14, 0.000000e+00
  br label %_ZNK6open3d13visualization11ColorMapJet7JetBaseEd.exit

16:                                               ; preds = %6
  %17 = fcmp ugt double %4, 2.500000e-01
  br i1 %17, label %18, label %_ZNK6open3d13visualization11ColorMapJet7JetBaseEd.exit

18:                                               ; preds = %16
  %19 = fcmp ugt double %4, 7.500000e-01
  br i1 %19, label %_ZNK6open3d13visualization11ColorMapJet7JetBaseEd.exit, label %20

20:                                               ; preds = %18
  %21 = fcmp olt double %4, 2.500000e-01
  br i1 %21, label %_ZNK6open3d13visualization11ColorMapJet7JetBaseEd.exit, label %22

22:                                               ; preds = %20
  %23 = fcmp ogt double %4, 7.500000e-01
  br i1 %23, label %_ZNK6open3d13visualization11ColorMapJet7JetBaseEd.exit, label %24

24:                                               ; preds = %22
  %25 = fadd double %4, -2.500000e-01
  %26 = fmul double %25, 2.000000e+00
  %27 = fsub double 1.000000e+00, %26
  br label %_ZNK6open3d13visualization11ColorMapJet7JetBaseEd.exit

_ZNK6open3d13visualization11ColorMapJet7JetBaseEd.exit: ; preds = %3, %8, %10, %12, %16, %18, %20, %22, %24
  %.0.i = phi double [ 0.000000e+00, %3 ], [ 1.000000e+00, %16 ], [ 0.000000e+00, %18 ], [ %15, %12 ], [ 0.000000e+00, %8 ], [ 1.000000e+00, %10 ], [ %27, %24 ], [ 1.000000e+00, %20 ], [ 0.000000e+00, %22 ]
  %28 = tail call double @llvm.fmuladd.f64(double %2, double 2.000000e+00, double -1.000000e+00)
  %29 = fcmp ugt double %28, -7.500000e-01
  br i1 %29, label %30, label %_ZNK6open3d13visualization11ColorMapJet7JetBaseEd.exit5

30:                                               ; preds = %_ZNK6open3d13visualization11ColorMapJet7JetBaseEd.exit
  %31 = fcmp ugt double %28, -2.500000e-01
  br i1 %31, label %40, label %32

32:                                               ; preds = %30
  %33 = fcmp olt double %28, -7.500000e-01
  br i1 %33, label %_ZNK6open3d13visualization11ColorMapJet7JetBaseEd.exit5, label %34

34:                                               ; preds = %32
  %35 = fcmp ogt double %28, -2.500000e-01
  br i1 %35, label %_ZNK6open3d13visualization11ColorMapJet7JetBaseEd.exit5, label %36

36:                                               ; preds = %34
  %37 = fadd double %28, 7.500000e-01
  %38 = fmul double %37, 2.000000e+00
  %39 = fadd double %38, 0.000000e+00
  br label %_ZNK6open3d13visualization11ColorMapJet7JetBaseEd.exit5

40:                                               ; preds = %30
  %41 = fcmp ugt double %28, 2.500000e-01
  br i1 %41, label %42, label %_ZNK6open3d13visualization11ColorMapJet7JetBaseEd.exit5

42:                                               ; preds = %40
  %43 = fcmp ugt double %28, 7.500000e-01
  br i1 %43, label %_ZNK6open3d13visualization11ColorMapJet7JetBaseEd.exit5, label %44

44:                                               ; preds = %42
  %45 = fcmp olt double %28, 2.500000e-01
  br i1 %45, label %_ZNK6open3d13visualization11ColorMapJet7JetBaseEd.exit5, label %46

46:                                               ; preds = %44
  %47 = fcmp ogt double %28, 7.500000e-01
  br i1 %47, label %_ZNK6open3d13visualization11ColorMapJet7JetBaseEd.exit5, label %48

48:                                               ; preds = %46
  %49 = fadd double %28, -2.500000e-01
  %50 = fmul double %49, 2.000000e+00
  %51 = fsub double 1.000000e+00, %50
  br label %_ZNK6open3d13visualization11ColorMapJet7JetBaseEd.exit5

_ZNK6open3d13visualization11ColorMapJet7JetBaseEd.exit5: ; preds = %_ZNK6open3d13visualization11ColorMapJet7JetBaseEd.exit, %32, %34, %36, %40, %42, %44, %46, %48
  %.0.i4 = phi double [ 0.000000e+00, %_ZNK6open3d13visualization11ColorMapJet7JetBaseEd.exit ], [ 1.000000e+00, %40 ], [ 0.000000e+00, %42 ], [ %39, %36 ], [ 0.000000e+00, %32 ], [ 1.000000e+00, %34 ], [ %51, %48 ], [ 1.000000e+00, %44 ], [ 0.000000e+00, %46 ]
  %52 = tail call double @llvm.fmuladd.f64(double %2, double 2.000000e+00, double -5.000000e-01)
  %53 = fcmp ugt double %52, -7.500000e-01
  br i1 %53, label %54, label %_ZNK6open3d13visualization11ColorMapJet7JetBaseEd.exit7

54:                                               ; preds = %_ZNK6open3d13visualization11ColorMapJet7JetBaseEd.exit5
  %55 = fcmp ugt double %52, -2.500000e-01
  br i1 %55, label %64, label %56

56:                                               ; preds = %54
  %57 = fcmp olt double %52, -7.500000e-01
  br i1 %57, label %_ZNK6open3d13visualization11ColorMapJet7JetBaseEd.exit7, label %58

58:                                               ; preds = %56
  %59 = fcmp ogt double %52, -2.500000e-01
  br i1 %59, label %_ZNK6open3d13visualization11ColorMapJet7JetBaseEd.exit7, label %60

60:                                               ; preds = %58
  %61 = fadd double %52, 7.500000e-01
  %62 = fmul double %61, 2.000000e+00
  %63 = fadd double %62, 0.000000e+00
  br label %_ZNK6open3d13visualization11ColorMapJet7JetBaseEd.exit7

64:                                               ; preds = %54
  %65 = fcmp ugt double %52, 2.500000e-01
  br i1 %65, label %66, label %_ZNK6open3d13visualization11ColorMapJet7JetBaseEd.exit7

66:                                               ; preds = %64
  %67 = fcmp ugt double %52, 7.500000e-01
  br i1 %67, label %_ZNK6open3d13visualization11ColorMapJet7JetBaseEd.exit7, label %68

68:                                               ; preds = %66
  %69 = fcmp olt double %52, 2.500000e-01
  br i1 %69, label %_ZNK6open3d13visualization11ColorMapJet7JetBaseEd.exit7, label %70

70:                                               ; preds = %68
  %71 = fcmp ogt double %52, 7.500000e-01
  br i1 %71, label %_ZNK6open3d13visualization11ColorMapJet7JetBaseEd.exit7, label %72

72:                                               ; preds = %70
  %73 = fadd double %52, -2.500000e-01
  %74 = fmul double %73, 2.000000e+00
  %75 = fsub double 1.000000e+00, %74
  br label %_ZNK6open3d13visualization11ColorMapJet7JetBaseEd.exit7

_ZNK6open3d13visualization11ColorMapJet7JetBaseEd.exit7: ; preds = %_ZNK6open3d13visualization11ColorMapJet7JetBaseEd.exit5, %56, %58, %60, %64, %66, %68, %70, %72
  %.0.i6 = phi double [ 0.000000e+00, %_ZNK6open3d13visualization11ColorMapJet7JetBaseEd.exit5 ], [ 1.000000e+00, %64 ], [ 0.000000e+00, %66 ], [ %63, %60 ], [ 0.000000e+00, %56 ], [ 1.000000e+00, %58 ], [ %75, %72 ], [ 1.000000e+00, %68 ], [ 0.000000e+00, %70 ]
  store double %.0.i, ptr %0, align 8, !tbaa !4
  %76 = getelementptr inbounds nuw i8, ptr %0, i64 8
  store double %.0.i4, ptr %76, align 8, !tbaa !4
  %77 = getelementptr inbounds nuw i8, ptr %0, i64 16
  store double %.0.i6, ptr %77, align 8, !tbaa !4
  ret void
}